; Function Attrs: mustprogress nofree norecurse nosync nounwind willreturn memory(argmem: write) uwtable
define void @Tas_SetDefaultParams(ptr noundef writeonly captures(none) initializes((0, 56)) %0) local_unnamed_addr #0 {
  %2 = getelementptr inbounds nuw i8, ptr %0, i64 8
  tail call void @llvm.memset.p0.i64(ptr noundef nonnull align 4 dereferenceable(56) %2, i8 0, i64 20, i1 false)
  store i32 2000, ptr %0, align 4, !tbaa !3
  %3 = getelementptr inbounds nuw i8, ptr %0, i64 4
  store i32 2000, ptr %3, align 4, !tbaa !9
  %4 = getelementptr inbounds nuw i8, ptr %0, i64 36
  store i32 0, ptr %4, align 4, !tbaa !10
  %5 = getelementptr inbounds nuw i8, ptr %0, i64 40
  store i32 1, ptr %5, align 4, !tbaa !11
  %6 = getelementptr inbounds nuw i8, ptr %0, i64 44
  store i32 0, ptr %6, align 4, !tbaa !12
  %7 = getelementptr inbounds nuw i8, ptr %0, i64 48
  store i32 0, ptr %7, align 4, !tbaa !13
  %8 = getelementptr inbounds nuw i8, ptr %0, i64 52
  store i32 1, ptr %8, align 4, !tbaa !14
  %9 = getelementptr inbounds nuw i8, ptr %0, i64 28
  store float 0x3FEE666660000000, ptr %9, align 4, !tbaa !15
  %10 = getelementptr inbounds nuw i8, ptr %0, i64 32
  store i32 1, ptr %10, align 4, !tbaa !16
  ret void
}